target datalayout = "e-m:e-p270:32:32-p271:32:32-p272:64:64-i64:64-i128:128-f80:128-n8:16:32:64-S128"
target triple = "x86_64-pc-linux-gnu"

%"class.ncnn::Interp" = type <{ %"class.ncnn::Layer", i32, float, float, i32, i32, i32, i32, [4 x i8] }>
%"class.ncnn::Layer" = type { ptr, i8, i8, i8, i8, i8, i8, i8, i8, i8, i8, i8, i8, i8, i8, i8, i8, i8, i8, i8, i8, i32, ptr, i32, %"class.std::__cxx11::basic_string", %"class.std::__cxx11::basic_string", %"class.std::vector", %"class.std::vector", %"class.std::vector.3", %"class.std::vector.3" }
%"class.std::__cxx11::basic_string" = type { %"struct.std::__cxx11::basic_string<char>::_Alloc_hider", i64, %union.anon }
%"struct.std::__cxx11::basic_string<char>::_Alloc_hider" = type { ptr }
%union.anon = type { i64, [8 x i8] }
%"class.std::vector" = type { %"struct.std::_Vector_base" }
%"struct.std::_Vector_base" = type { %"struct.std::_Vector_base<int, std::allocator<int>>::_Vector_impl" }
%"struct.std::_Vector_base<int, std::allocator<int>>::_Vector_impl" = type { %"struct.std::_Vector_base<int, std::allocator<int>>::_Vector_impl_data" }
%"struct.std::_Vector_base<int, std::allocator<int>>::_Vector_impl_data" = type { ptr, ptr, ptr }
%"class.std::vector.3" = type { %"struct.std::_Vector_base.4" }
%"struct.std::_Vector_base.4" = type { %"struct.std::_Vector_base<ncnn::Mat, std::allocator<ncnn::Mat>>::_Vector_impl" }
%"struct.std::_Vector_base<ncnn::Mat, std::allocator<ncnn::Mat>>::_Vector_impl" = type { %"struct.std::_Vector_base<ncnn::Mat, std::allocator<ncnn::Mat>>::_Vector_impl_data" }
%"struct.std::_Vector_base<ncnn::Mat, std::allocator<ncnn::Mat>>::_Vector_impl_data" = type { ptr, ptr, ptr }

@stderr = external global ptr, align 8
@.str = private unnamed_addr constant [27 x i8] c"unsupported resize type %d\00", align 1
@.str.1 = private unnamed_addr constant [2 x i8] c"\0A\00", align 1

; Function Attrs: mustprogress uwtable
define hidden noundef i32 @_ZN4ncnn6Interp10load_paramERKNS_9ParamDictE(ptr noundef nonnull align 8 dereferenceable(236) %0, ptr noundef nonnull align 8 dereferenceable(16) %1) unnamed_addr #2 align 2 {
  %3 = alloca i32, align 4
  %4 = alloca ptr, align 8
  %5 = alloca ptr, align 8
  store ptr %0, ptr %4, align 8, !tbaa !4
  store ptr %1, ptr %5, align 8, !tbaa !9
  %6 = load ptr, ptr %4, align 8
  %7 = load ptr, ptr %5, align 8, !tbaa !9
  %8 = call noundef i32 @_ZNK4ncnn9ParamDict3getEii(ptr noundef nonnull align 8 dereferenceable(16) %7, i32 noundef 0, i32 noundef 0)
  %9 = getelementptr inbounds nuw %"class.ncnn::Interp", ptr %6, i32 0, i32 1
  store i32 %8, ptr %9, align 8, !tbaa !11
  %10 = load ptr, ptr %5, align 8, !tbaa !9
  %11 = call fast noundef nofpclass(nan inf) float @_ZNK4ncnn9ParamDict3getEif(ptr noundef nonnull align 8 dereferenceable(16) %10, i32 noundef 1, float noundef nofpclass(nan inf) 1.000000e+00)
  %12 = getelementptr inbounds nuw %"class.ncnn::Interp", ptr %6, i32 0, i32 3
  store float %11, ptr %12, align 8, !tbaa !31
  %13 = load ptr, ptr %5, align 8, !tbaa !9
  %14 = call fast noundef nofpclass(nan inf) float @_ZNK4ncnn9ParamDict3getEif(ptr noundef nonnull align 8 dereferenceable(16) %13, i32 noundef 2, float noundef nofpclass(nan inf) 1.000000e+00)
  %15 = getelementptr inbounds nuw %"class.ncnn::Interp", ptr %6, i32 0, i32 2
  store float %14, ptr %15, align 4, !tbaa !32
  %16 = load ptr, ptr %5, align 8, !tbaa !9
  %17 = call noundef i32 @_ZNK4ncnn9ParamDict3getEii(ptr noundef nonnull align 8 dereferenceable(16) %16, i32 noundef 3, i32 noundef 0)
  %18 = getelementptr inbounds nuw %"class.ncnn::Interp", ptr %6, i32 0, i32 5
  store i32 %17, ptr %18, align 8, !tbaa !33
  %19 = load ptr, ptr %5, align 8, !tbaa !9
  %20 = call noundef i32 @_ZNK4ncnn9ParamDict3getEii(ptr noundef nonnull align 8 dereferenceable(16) %19, i32 noundef 4, i32 noundef 0)
  %21 = getelementptr inbounds nuw %"class.ncnn::Interp", ptr %6, i32 0, i32 4
  store i32 %20, ptr %21, align 4, !tbaa !34
  %22 = load ptr, ptr %5, align 8, !tbaa !9
  %23 = call noundef i32 @_ZNK4ncnn9ParamDict3getEii(ptr noundef nonnull align 8 dereferenceable(16) %22, i32 noundef 5, i32 noundef 0)
  %24 = getelementptr inbounds nuw %"class.ncnn::Interp", ptr %6, i32 0, i32 6
  store i32 %23, ptr %24, align 4, !tbaa !35
  %25 = load ptr, ptr %5, align 8, !tbaa !9
  %26 = call noundef i32 @_ZNK4ncnn9ParamDict3getEii(ptr noundef nonnull align 8 dereferenceable(16) %25, i32 noundef 6, i32 noundef 0)
  %27 = getelementptr inbounds nuw %"class.ncnn::Interp", ptr %6, i32 0, i32 7
  store i32 %26, ptr %27, align 8, !tbaa !36
  %28 = getelementptr inbounds nuw %"class.ncnn::Interp", ptr %6, i32 0, i32 1
  %29 = load i32, ptr %28, align 8, !tbaa !11
  %30 = icmp slt i32 %29, 0
  br i1 %30, label %35, label %31

31:                                               ; preds = %2
  %32 = getelementptr inbounds nuw %"class.ncnn::Interp", ptr %6, i32 0, i32 1
  %33 = load i32, ptr %32, align 8, !tbaa !11
  %34 = icmp sgt i32 %33, 3
  br i1 %34, label %35, label %44

35:                                               ; preds = %31, %2
  br label %36

36:                                               ; preds = %35
  %37 = load ptr, ptr @stderr, align 8, !tbaa !37
  %38 = getelementptr inbounds nuw %"class.ncnn::Interp", ptr %6, i32 0, i32 1
  %39 = load i32, ptr %38, align 8, !tbaa !11
  %40 = call i32 (ptr, ptr, ...) @fprintf(ptr noundef %37, ptr noundef @.str, i32 noundef %39) #15
  %41 = load ptr, ptr @stderr, align 8, !tbaa !37
  %42 = call i32 (ptr, ptr, ...) @fprintf(ptr noundef %41, ptr noundef @.str.1) #15
  br label %43

43:                                               ; preds = %36
  store i32 -1, ptr %3, align 4
  br label %51

44:                                               ; preds = %31
  %45 = getelementptr inbounds nuw %"class.ncnn::Interp", ptr %6, i32 0, i32 6
  %46 = load i32, ptr %45, align 4, !tbaa !35
  %47 = icmp eq i32 %46, 1
  br i1 %47, label %48, label %50

48:                                               ; preds = %44
  %49 = getelementptr inbounds nuw %"class.ncnn::Layer", ptr %6, i32 0, i32 1
  store i8 0, ptr %49, align 8, !tbaa !39
  br label %50

50:                                               ; preds = %48, %44
  store i32 0, ptr %3, align 4
  br label %51

51:                                               ; preds = %50, %43
  %52 = load i32, ptr %3, align 4
  ret i32 %52
}