; Function Attrs: mustprogress uwtable
define hidden noundef range(i32 -1, 1) i32 @_ZN4ncnn6Interp10load_paramERKNS_9ParamDictE(ptr noundef nonnull align 8 captures(none) dereferenceable(236) initializes((208, 236)) %0, ptr noundef nonnull align 8 dereferenceable(16) %1) unnamed_addr #2 align 2 {
  %3 = tail call noundef i32 @_ZNK4ncnn9ParamDict3getEii(ptr noundef nonnull align 8 dereferenceable(16) %1, i32 noundef 0, i32 noundef 0)
  %4 = getelementptr inbounds nuw i8, ptr %0, i64 208
  store i32 %3, ptr %4, align 8, !tbaa !4
  %5 = tail call fast noundef nofpclass(nan inf) float @_ZNK4ncnn9ParamDict3getEif(ptr noundef nonnull align 8 dereferenceable(16) %1, i32 noundef 1, float noundef nofpclass(nan inf) 1.000000e+00)
  %6 = getelementptr inbounds nuw i8, ptr %0, i64 216
  store float %5, ptr %6, align 8, !tbaa !27
  %7 = tail call fast noundef nofpclass(nan inf) float @_ZNK4ncnn9ParamDict3getEif(ptr noundef nonnull align 8 dereferenceable(16) %1, i32 noundef 2, float noundef nofpclass(nan inf) 1.000000e+00)
  %8 = getelementptr inbounds nuw i8, ptr %0, i64 212
  store float %7, ptr %8, align 4, !tbaa !28
  %9 = tail call noundef i32 @_ZNK4ncnn9ParamDict3getEii(ptr noundef nonnull align 8 dereferenceable(16) %1, i32 noundef 3, i32 noundef 0)
  %10 = getelementptr inbounds nuw i8, ptr %0, i64 224
  store i32 %9, ptr %10, align 8, !tbaa !29
  %11 = tail call noundef i32 @_ZNK4ncnn9ParamDict3getEii(ptr noundef nonnull align 8 dereferenceable(16) %1, i32 noundef 4, i32 noundef 0)
  %12 = getelementptr inbounds nuw i8, ptr %0, i64 220
  store i32 %11, ptr %12, align 4, !tbaa !30
  %13 = tail call noundef i32 @_ZNK4ncnn9ParamDict3getEii(ptr noundef nonnull align 8 dereferenceable(16) %1, i32 noundef 5, i32 noundef 0)
  %14 = getelementptr inbounds nuw i8, ptr %0, i64 228
  store i32 %13, ptr %14, align 4, !tbaa !31
  %15 = tail call noundef i32 @_ZNK4ncnn9ParamDict3getEii(ptr noundef nonnull align 8 dereferenceable(16) %1, i32 noundef 6, i32 noundef 0)
  %16 = getelementptr inbounds nuw i8, ptr %0, i64 232
  store i32 %15, ptr %16, align 8, !tbaa !32
  %17 = load i32, ptr %4, align 8, !tbaa !4
  %or.cond = icmp ugt i32 %17, 3
  br i1 %or.cond, label %18, label %22

18:                                               ; preds = %2
  %19 = load ptr, ptr @stderr, align 8, !tbaa !33
  %20 = tail call i32 (ptr, ptr, ...) @fprintf(ptr noundef %19, ptr noundef nonnull @.str, i32 noundef %17) #21
  %21 = load ptr, ptr @stderr, align 8, !tbaa !33
  %fputc = tail call i32 @fputc(i32 10, ptr %21)
  br label %27

22:                                               ; preds = %2
  %23 = load i32, ptr %14, align 4, !tbaa !31
  %24 = icmp eq i32 %23, 1
  br i1 %24, label %25, label %27

25:                                               ; preds = %22
  %26 = getelementptr inbounds nuw i8, ptr %0, i64 8
  store i8 0, ptr %26, align 8, !tbaa !35
  br label %27

27:                                               ; preds = %22, %25, %18
  %.0 = phi i32 [ -1, %18 ], [ 0, %25 ], [ 0, %22 ]
  ret i32 %.0
}